(lp1
(lp2
S'>Au9.Cre13.g585350.t1'
p3
aVgi|359385308|emb|FR865725.1|
p4
aS'-'
aF0.12389380530973451
a(lp5
((I6
I11
t(I523
I540
t(VQQCPPI
VQ CPP+
VQTCPPM
I-3
ttp6
a((I10
I23
t(I328
I369
t(VPIRGLTWVKGDPVP
VP+R  T +   P+P
VPLRNRTLILRHPLP
I-3
ttp7
a((I40
I47
t(I526
I549
t(VCWATWCPP
VCW   CPP
VCWHQTCPP
I-3
ttp8
aaa(lp9
S'>Au9.Cre13.g566250.t1'
p10
aVgi|406668626|gb|JX401409.1|
p11
aS'-'
aF0.026402640264026403
a(lp12
((I286
I293
t(I445
I468
t(VPDAAAWLQ
VP AAAW Q
VPVAAAWYQ
I-1
ttp13
aaa(lp14
S'>Au9.Cre13.g601350.t1'
p15
aS' '
aS' '
aF0
a(lp16
a(lp17
aa(lp18
S'>Au9.Cre07.g321300.t1'
p19
aVgi|359385308|emb|FR865725.1|
p20
aS'-'
aF0.27777777777777779
a(lp21
((I34
I72
t(I1865
I1981
t(VRLPLRGSGSRRVTSVVRHAADENTSSAPPAEDTPATAPA
VRLP+  + S RV      A     + AP  +     APA
VRLPVNSNQSFRVWF*QWLALVYKHAKAPLMQVIKLLAPA
I-2
ttp22
a((I169
I182
t(I354
I401
t(VFLRDGSRL--EITGIE
VFL  GSR    ++GIE
VFLGCGSRFSGSLSGIE
I-1
ttp23
aaa(lp24
S'>Au9.Cre06.g279850.t1'
p25
aVgi|359385308|emb|FR865725.1|
p26
aS'-'
aF0.044280442804428041
a(lp27
((I254
I265
t(I1059
I1094
t(VLLTGMPKNCDYS
V+L   PKN D+S
VILPPEPKNFDFS
I-1
ttp28
aaa(lp29
S'>Au9.Cre32.g782000.t1'
p30
aVgi|359385308|emb|FR865725.1|
p31
aS'+'
aF0.038590604026845637
a(lp32
((I272
I294
t(I637
I705
t(VPPIALSGLACVGNEGSLLGCTRR
VPP+  + +A +     LLG T R
VPPMVSTAMAFLSVGDGLLGFTVR
I1
ttp33
aaa(lp34
S'>Au9.Cre12.g498450.t1'
p35
aVgi|359385308|emb|FR865725.1|
p36
aS'+'
aF0.09405940594059406
a(lp37
((I193
I240
t(I2148
I2297
t(VFVPGQATLPGGLKAVQVAAGDGFTFAVGT--DGSLYGCGHFKDEVGALSG
VF+P   +  GGL +  +A G    F +G+   G L   G  KD + A +G
VFIPSPLSPFGGLVSF*LALGVDLAFPIGSLRLGWLKLRGLSKDPIWASTG
I3
ttp38
a((I295
I301
t(I305
I325
t(VGRVKPYH
VGR++ YH
VGRIEAYH
I2
ttp39
aaa(lp40
S'>Au9.Cre07.g355000.t1'
p41
aVgi|359385308|emb|FR865725.1|
p42
aS'+'
aF0.34899328859060402
a(lp43
((I93
I119
t(I743
I802
t(VVLEASPRQRQLANRLCSPGGVPTIGLW
VV +A  RQ  LA          TIGLW
VVFKAGLRQNTLAWN-------NTIGLW
I2
ttp44
a((I99
I122
t(I1046
I1105
t(VRQRQLANR-LCSPGGVPTIGLWSEG
VRQ  + N+    PGGV     WS+G
VRQHLMRNQSFWVPGGV-----WSQG
I2
ttp45
aaa(lp46
S'>Au9.Cre01.g000550.t1'
p47
aVgi|406668626|gb|JX401409.1|
p48
aS'-'
aF0.019088016967126194
a(lp49
((I222
I239
t(I430
I483
t(VHVGVGAGAAAVRGPTLLS
VH  V   AAA   PTLLS
VHALVKPVAAAWYQPTLLS
I-1
ttp50
aaa(lp51
S'>Au9.Cre13.g566550.t1'
p52
aVgi|406668626|gb|JX401409.1|
p53
aS'+'
aF0.015353121801432957
a(lp54
((I871
I885
t(I500
I544
t(VLGACGVAELVKGMGP
V G C +  LVKG  P
VFGNCSLKMLVKGFQP
I2
ttp55
aaa(lp56
S'>Au9.Cre13.g606000.t1'
p57
aS' '
aS' '
aF0
a(lp58
a(lp59
aa(lp60
S'>Au9.Cre10.g448900.t1'
p61
aVgi|359385308|emb|FR865725.1|
p62
aS'-'
aF0.12422360248447205
a(lp63
((I198
I234
t(I2191
I2310
t(VPSPPPALEPASAPPL---ASSSPPAASPQPSPEPSPEPSR
VP  P  L+P S P L   AS++P   +    P+P   P+R
VPVLPIQLKPISGPCLSL*ASANPIGVNQLGKPDPPLRPTR
I-3
ttp64
aaa(lp65
S'>Au9.Cre16.g678250.t1'
p66
aVgi|359385308|emb|FR865725.1|
p67
aS'/'
aF0.047112462006079027
a(lp68
((I159
I172
t(I2155
I2196
t(VPHPSAVAPAVSASA
VPHPS +    SAS+
VPHPSLLLEGWSASS
I1
ttp69
a((I211
I227
t(I2070
I2120
t(VPKAASQKVVRKSWRHGM
VP+A +Q   + S  HG+
VPRARAQYAFKDSMVHGI
I-1
ttp70
aaa(lp71
S'>Au9.Cre02.g114000.t1'
p72
aVgi|12055731|emb|AJ400488.1|
p73
aS'+'
aF0.01108179419525066
a(lp74
((I1450
I1458
t(I11
I37
t(VTPAPPSPWG
V P+P SP+G
VIPSPLSPFG
I2
ttp75
a((I1498
I1509
t(I73
I108
t(VAALPGWALPVGC
V+  P W  P+G 
VSGFPNWFTPIGL
I1
ttp76
aaa(lp77
S'>Au9.Cre13.g599450.t1'
p78
aVgi|406668626|gb|JX401409.1|
p79
aS'-'
aF0.14857142857142858
a(lp80
((I297
I346
t(I623
I766
t(VPPPPALLASGDAGGLVGEALLAELRLLREE--VRATWLESLEVGPQGQPQGQ
VPPP   LAS  +G  +   L    R  R +   R  W  S++    G P  Q
VPPPGFHLASPCSG--IVHHLSGPNRYARTQTFCRNAW--SVDGAGTGHPTSQ
I-3
ttp81
aaa(lp82
S'>Au9.Cre14.g613750.t1'
p83
aVgi|406668626|gb|JX401409.1|
p84
aS'+'
aF0.032490974729241874
a(lp85
((I343
I360
t(I163
I216
t(VPHGGLARQLSGGALPPNL
VPH  L++        PNL
VPHEVLSKSRVAWECSPNL
I1
ttp86
aaa(lp87
S'>Au9.Cre01.g000650.t1'
p88
aVgi|359385308|emb|FR865725.1|
p89
aS'-'
aF0.05533596837944664
a(lp90
((I309
I350
t(I842
I967
t(VEGPSFSLDGPVLSWQRWRMVLGFNGREGLVLHNLTYTDPLAP
VE P+F LD     WQ       F+  +     N     P  P
VEPPTFVLD**KHPWQMLSQ*FVFHKSKNFTSDNEIRMPPTVP
I-2
ttp91
aaa(lp92
S'>Au9.Cre17.g705650.t1'
p93
aS' '
aS' '
aF0
a(lp94
a(lp95
aa(lp96
S'>Au9.Cre10.g425250.t1'
p97
aVgi|406668626|gb|JX401409.1|
p98
aS'-'
aF0.022009029345372459
a(lp99
((I958
I993
t(I382
I498
t(VDDGAASSVASSATQAWEVPAAP---PAAAPPALLPLRSP
VD G+  ++      AW  P      P    PAL   R+P
VDKGSLHALVKPVAAAWYQPTLLSH*PNPCWPALSTYRAP
I-1
ttp100
aaa(lp101
S'>Au9.Cre06.g292550.t1'
p102
aVgi|12055731|emb|AJ400488.1|
p103
aS'+'
aF0.032894736842105261
a(lp104
((I242
I251
t(I175
I204
t(VCRAHQVVEEG
VCR H+VV  G
VCRLHEVVACG
I1
ttp105
aaa(lp106
S'>Au9.Cre10.g450050.t1'
p107
aVgi|406668626|gb|JX401409.1|
p108
aS'+'
aF0.022913256955810146
a(lp109
((I201
I214
t(I466
I507
t(VWLDRGARALTATEE
VWLD+G +      E
VWLDQGVKTALVLRE
I1
ttp110
aaa(lp111
S'>Au9.Cre09.g407000.t1'
p112
aS' '
aS' '
aF0
a(lp113
a(lp114
aa(lp115
S'>Au9.Cre03.g207650.t1'
p116
aVgi|12055731|emb|AJ400488.1|
p117
aS'+'
aF0.081967213114754092
a(lp118
((I101
I113
t(I214
I261
t(VRPTNKHPAAV---RPQ
VRP+ KH   V   RP+
VRPSRKHALHVLNFRPE
I1
ttp119
a((I142
I150
t(I177
I203
t(VPSTPSSGAW
VP+T S G W
VPTTRSCGLW
I3
ttp120
aaa(lp121
S'>Au9.Cre15.g646450.t1'
p122
aS' '
aS' '
aF0
a(lp123
a(lp124
aa(lp125
S'>Au9.Cre02.g140900.t1'
p126
aVgi|406668626|gb|JX401409.1|
p127
aS'-'
aF0.0095969289827255271
a(lp128
((I74
I78
t(I215
I229
t(VWDVPP
VWD+PP
VWDLPP
I-3
ttp129
aaa(lp130
S'>Au9.Cre04.g218000.t1'
p131
aS' '
aS' '
aF0
a(lp132
a(lp133
aa(lp134
S'>Au9.Cre12.g507500.t1'
p135
aS' '
aS' '
aF0
a(lp136
a(lp137
aa(lp138
S'>Au9.Cre10.g429900.t1'
p139
aVgi|406668626|gb|JX401409.1|
p140
aS'-'
aF0.059343434343434344
a(lp141
((I159
I197
t(I239
I349
t(VINTLASPPEAFAAASHSTQAHCMVLGSDGTHTVPALPAF
VI TL  PP+ F A  +S      +  S     +   P F
VIQTL--PPQQFQALFNSLFKVLFIFPSRYLFAIGLSPVF
I-3
ttp142
a((I396
I403
t(I240
I263
t(VRYRSLAAL
VRYRSLA++
VRYRSLASI
I-2
ttp143
aaa(lp144
S'>Au9.Cre01.g062850.t1'
p145
aVgi|359385308|emb|FR865725.1|
p146
aS'/'
aF0.24874371859296482
a(lp147
((I259
I322
t(I1942
I2106
t(VALGLQRV--FKDAAVSKTGSYDLTIGSSPAGADTDPGSLVMPRFKHALMVFGGGSPVAAAAAVAEG
VA+ +QR    +++A+  T  Y +++ SS         SL  PR+    +VFG    + A  A   G
VAICVQRFDGSRNSAIHTT--YRISLRSS---------SLREPRYPLLRVVFG*DCQLIAIKASEFG
I-3
ttp148
a((I264
I296
t(I740
I838
t(VRVFKDAAVSKTGSYDLTIGSSPAGADTDPGSLV
VRVFK      T +++ TIG  P       G ++
VRVFKAGLRQNTLAWNNTIGLWPILLVCRTGVMI
I2
ttp149
aaa(lp150
S'>Au9.Cre16.g655000.t1'
p151
aVgi|359385308|emb|FR865725.1|
p152
aS'-'
aF0.066985645933014357
a(lp153
((I103
I116
t(I393
I434
t(VYRDVWECLPPLFVG
VY+D   C P  F+G
VYQDWVICAPAAFLG
I-1
ttp154
aaa(lp155
S'>Au9.Cre07.g326550.t1'
p156
aVgi|359385308|emb|FR865725.1|
p157
aS'/'
aF0.035952063914780293
a(lp158
((I95
I101
t(I2160
I2180
t(VPLSPLGG
VPLSP GG
VPLSPFGG
I3
ttp159
a((I333
I341
t(I2348
I2374
t(VSTSPAWPIA
VS  PAWP+A
VSMFPAWPLA
I-2
ttp160
a((I335
I345
t(I1845
I1877
t(VSPAWPIAAGAT
VSP W + AGA+
VSPXWYLQAGAS
I3
ttp161
aaa(lp162
S'>Au9.Cre04.g215700.t1'
p163
aS' '
aS' '
aF0
a(lp164
a(lp165
aa(lp166
S'>Au9.Cre09.g407550.t1'
p167
aS' '
aS' '
aF0
a(lp168
a(lp169
aa(lp170
S'>Au9.Cre15.g647250.t1'
p171
aS' '
aS' '
aF0
a(lp172
a(lp173
aa(lp174
S'>Au9.Cre14.g627150.t1'
p175
aS' '
aS' '
aF0
a(lp176
a(lp177
aa(lp178
S'>Au9.Cre02.g141000.t1'
p179
aVgi|12055731|emb|AJ400488.1|
p180
aS'-'
aF0.0080745341614906832
a(lp181
((I748
I760
t(I219
I257
t(VGLDFRTCNAVIMV
VG  F+TC A  ++
VGRKFKTCKACFLL
I-3
ttp182
aaa(lp183
S'>Au9.Cre17.g709200.t1'
p184
aS' '
aS' '
aF0
a(lp185
a(lp186
aa(lp187
S'>Au9.Cre16.g649500.t1'
p188
aS' '
aS' '
aF0
a(lp189
a(lp190
aa(lp191
S'>Au9.Cre03.g159900.t1'
p192
aVgi|359385308|emb|FR865725.1|
p193
aS'-'
aF0.018633540372670808
a(lp194
((I30
I38
t(I1049
I1075
t(VKTLMRHKLL
VKTL+ HK+L
VKTLISHKVL
I-2
ttp195
aaa(lp196
S'>Au9.Cre19.g756100.t1'
p197
aVgi|359385308|emb|FR865725.1|
p198
aS'+'
aF0.034482758620689655
a(lp199
((I374
I388
t(I69
I113
t(VANGHADLVAYGRWYL
VANG  + + +  WYL
VANGSLNQL*FIWWYL
I3
ttp200
aaa(lp201
S'>Au9.Cre12.g487100.t1'
p202
aVgi|12055731|emb|AJ400488.1|
p203
aS'+'
aF0.0091743119266055051
a(lp204
((I59
I64
t(I58
I75
t(VGLRGGS
VGLRGGS
VGLRGGS
I1
ttp205
aaa(lp206
S'>Au9.Cre06.g293750.t1'
p207
aVgi|406668626|gb|JX401409.1|
p208
aS'+'
aF0.019163763066202089
a(lp209
((I363
I373
t(I656
I688
t(VDQPHWNAKGLA
VD+P  +AKGL+
VDRPCVSAKGLS
I2
ttp210
aaa(lp211
S'>Au9.Cre26.g773700.t1'
p212
aVgi|406668626|gb|JX401409.1|
p213
aS'-'
aF0.028169014084507043
a(lp214
((I210
I221
t(I554
I589
t(VDNLHLRAAGACL
V  +H+R  G C 
VTRIHVRLLGPCF
I-3
ttp215
aaa(lp216
S'>Au9.Cre02.g117600.t1'
p217
aVgi|406668626|gb|JX401409.1|
p218
aS'+'
aF0.047752808988764044
a(lp219
((I202
I218
t(I716
I766
t(VMSNYSPAGDVLMSEAWR
VM NY+ AG   +   WR
VMVNYA*AG*SQVKTWWR
I2
ttp220
aaa(lp221
S'>Au9.Cre11.g470550.t1'
p222
aVgi|359385308|emb|FR865725.1|
p223
aS'-'
aF0.035294117647058823
a(lp224
((I12
I20
t(I1080
I1106
t(VSLASVAPPD
VSLA++ PP+
VSLATILPPE
I-1
ttp225
aaa(lp226
S'>Au9.Cre03.g183450.t1'
p227
aVgi|406668626|gb|JX401409.1|
p228
aS'/'
aF0.080412371134020624
a(lp229
((I15
I30
t(I789
I836
t(VNRLPHLGVGGLDGSPL
VNR   LG+G  D SPL
VNRFSDLGLGTKD*SPL
I3
ttp230
a((I175
I186
t(I446
I481
t(VRFAQASGTGVLA
VR  QASG+G+++
VRLGQASGSGMVS
I-3
ttp231
a((I276
I286
t(I616
I648
t(VQAQGLPPQGLL
VQAQ +PP   L
VQAQAIPPVSFL
I-1
ttp232
aaa(lp233
S'>Au9.Cre16.g674550.t1'
p234
aVgi|406668626|gb|JX401409.1|
p235
aS'-'
aF0.055505004549590536
a(lp236
((I337
I381
t(I674
I805
t(VKMENYKKDQTVYRIGDPPERFHLI--LTGVVEVWTHPPGNRREKTLI
VK E     Q +Y   +PP  FHL    +G+V   + P    R +T  
VKSEKRFARQHIY---EPPPGFHLASPCSGIVHHLSGPNRYARTQTFC
I-3
ttp237
a((I350
I363
t(I563
I604
t(VIGDPPERFHLILTG
V+  PP R H+ L G
VVFHPPTRIHVRLLG
I-3
ttp238
aaa(lp239
S'>Au9.Cre01.g038200.t1'
p240
aVgi|359385308|emb|FR865725.1|
p241
aS'-'
aF0.068965517241379309
a(lp242
((I96
I111
t(I456
I503
t(VRVYGLVFPDPTCFVII
VR+Y    PD  C V++
VRLYSFQLPDIKCPVLL
I-1
ttp243
aaa(lp244
S'>Au9.Cre07.g345250.t1'
p245
aVgi|359385308|emb|FR865725.1|
p246
aS'+'
aF0.020702070207020702
a(lp247
((I56
I78
t(I710
I778
t(VRSRQGNPAGDQLARALLRADTLA
VRSR+G     ++ +A LR +TLA
VRSRRGYFE*IRVFKAGLRQNTLA
I2
ttp248
aaa(lp249
S'>Au9.Cre07.g332400.t1'
p250
aVgi|359385308|emb|FR865725.1|
p251
aS'+'
aF0.079734219269102985
a(lp252
((I328
I344
t(I1831
I1881
t(VARQLGSRLRDCSDVRVV
VARQL      C  VRV+
VARQLAXLXGTCKLVRVI
I1
ttp253
a((I369
I376
t(I779
I802
t(VWNLPPGLW
VWN   GLW
VWNNTIGLW
I2
ttp254
a((I371
I390
t(I1079
I1147
t(VLPPGLWARG--VQE-APGSHGAW
V+P G+W++G  ++E   G H AW
VVPGGVWSQG*NLKELTEGHHQAW
I2
ttp255
aaa(lp256
S'>Au9.Cre06.g279150.t1'
p257
aVgi|12055731|emb|AJ400488.1|
p258
aS'-'
aF0.033027522935779818
a(lp259
((I472
I489
t(I164
I217
t(VGAQRVHDPELLTTRAIEC
V + +VH P+L       C
VASSKVHKPQLRVVGRSRC
I-1
ttp260
aaa(lp261
S'>Au9.Cre02.g127950.t1'
p262
aVgi|359385308|emb|FR865725.1|
p263
aS'+'
aF0.0052821128451380553
a(lp264
((I144
I165
t(I660
I725
t(VGVPLTSGRALVAHDDGTGHSVV
VG+P   GRA   H  G G  VV
VGLPFCRGRASGLHCPGLGVDVV
I3
ttp265
aaa(lp266
S'>Au9.Cre17.g735550.t1'
p267
aVgi|406668626|gb|JX401409.1|
p268
aS'+'
aF0.020790020790020791
a(lp269
((I379
I398
t(I656
I715
t(VQQPCAAGKQPSASAAAATQH
V +PC + K  SAS    T+ 
VDRPCVSAKGLSASIPVGTRK
I2
ttp270
aaa(lp271
S'>Au9.Cre01.g014750.t1'
p272
aVgi|359385308|emb|FR865725.1|
p273
aS'+'
aF0.32432432432432434
a(lp274
((I15
I38
t(I12
I83
t(VVSEKVGLGCLADSQFDCEKAIGDF
V+S+++   CL+ +   CE A G  
VLSQRLSHACLSINCLYCETANGSL
I3
ttp275
aaa(lp276
S'>Au9.Cre09.g407950.t1'
p277
aVgi|359385308|emb|FR865725.1|
p278
aS'-'
aF0.15942028985507245
a(lp279
((I77
I118
t(I2001
I2123
t(VCPDARAAEATMDEVLARVHSIA--NIRLVYIGTFNKSSPYDIVC
VCP ARA  A  D +   VH I    +R+ +    ++    DI C
VCPRARAQYAFKDSM---VHGILQFTLRIAFRCVLHRCESQDIRC
I-1
ttp280
aaa(lp281
S'>Au9.Cre09.g411850.t1'
p282
aVgi|359385308|emb|FR865725.1|
p283
aS'+'
aF0.053370786516853931
a(lp284
((I459
I472
t(I2082
I2123
t(VHRRDISALRKAPRA
VHR     LR +PRA
VHRIFERILRSSPRA
I3
ttp285
a((I471
I494
t(I2110
I2163
t(VRACGRDMWLVLHVGCVSGGVRPDP
VRA G++     HV C+S G+ P P
VRALGQE-----HV-CLSVGLYPHP
I1
ttp286
aaa(lp287
S'>Au9.Cre12.g537600.t1'
p288
aVgi|406668626|gb|JX401409.1|
p289
aS'+'
aF0.18604651162790697
a(lp290
((I68
I83
t(I84
I131
t(VVCNKYGVVLLTTGVRH
V+CN     LL  GVR 
VLCNGLS*SLLERGVRE
I3
ttp291
aaa(lp292
S'>Au9.Cre12.g547000.t1'
p293
aVgi|406668626|gb|JX401409.1|
p294
aS'/'
aF0.13059701492537312
a(lp295
((I83
I99
t(I361
I411
t(VLDLEGSLTRAVCLMEWP
VL L G    +VC   WP
VLRLMGP*RGSVCAERWP
I1
ttp296
a((I193
I210
t(I459
I509
t(VTDRRPRIVTLTPFGSYWE
V+ RR R V  TP+ S W+
VSSRRTRAV-FTPWSSQWQ
I-2
ttp297
aaa(lp298
S'>Au9.Cre13.g570400.t1'
p299
aVgi|406668626|gb|JX401409.1|
p300
aS'-'
aF0.009433962264150943
a(lp301
((I228
I232
t(I409
I423
t(VPGPCW
VP PCW
VPNPCW
I-1
ttp302
aaa(lp303
S'>Au9.Cre01.g042400.t1'
p304
aVgi|406668626|gb|JX401409.1|
p305
aS'/'
aF0.019642857142857142
a(lp306
((I11
I24
t(I456
I494
t(VKAVFTTWYRSEWNR
V+AVFT W  S+W R
VRAVFTPW-SSQWQR
I-2
ttp307
a((I496
I503
t(I385
I408
t(VGTLCAEYW
VG++CAE W
VGSVCAERW
I1
ttp308
aaa(lp309
S'>Au9.Cre04.g223450.t1'
p310
aVgi|406668626|gb|JX401409.1|
p311
aS'+'
aF0.020491803278688523
a(lp312
((I215
I224
t(I687
I716
t(VVRASVVGPVR
VVRA ++GP R
VVRAYLLGPER
I3
ttp313
aaa(lp314
S'>Au9.Cre01.g053000.t1'
p315
aVgi|12055731|emb|AJ400488.1|
p316
aS'-'
aF0.020746887966804978
a(lp317
((I228
I242
t(I58
I102
t(VDTSEPTARNQGKPEA
V+ SEP  + +  PEA
VNRSEPIGKARSTPEA
I-2
ttp318
aaa(lp319
S'>Au9.Cre15.g647150.t1'
p320
aS' '
aS' '
aF0
a(lp321
a(lp322
aa(lp323
S'>Au9.Cre02.g130450.t1'
p324
aVgi|406668626|gb|JX401409.1|
p325
aS'+'
aF0.065400843881856546
a(lp326
((I96
I126
t(I581
I673
t(VHPAAWLDLYRGFRVLTAQLGCLSNLIRSCSS
V+ + W++     R LT  + C   + R C S
VYASWWVENP*SVRKLTGGMACACTIDRPCVS
I2
ttp327
aaa(lp328
S'>Au9.Cre09.g413200.t1'
p329
aVgi|359385308|emb|FR865725.1|
p330
aS'+'
aF0.043735224586288417
a(lp331
((I292
I326
t(I2144
I2254
t(VSSYVVT--RFYRPPEVLLGDKYGAPVDVWSAGCTLAE
VS Y +T   F+R  ++L+G + G+    W     LAE
VSVYTLTPLSFWRAGQLLVGLRGGSGFPNWFTPIGLAE
I2
ttp332
aaa(lp333
S'>Au9.Cre03.g190400.t1'
p334
aVgi|359385308|emb|FR865725.1|
p335
aS'/'
aF0.098958333333333329
a(lp336
((I56
I67
t(I2233
I2268
t(VLSLKASAAGLGV
VLSL ASA  +GV
VLSL*ASANPIGV
I-3
ttp337
a((I74
I80
t(I1127
I1147
t(VDGRHLAW
V+G H AW
VEGHHQAW
I2
ttp338
aaa(lp339
S'>Au9.Cre09.g415800.t1'
p340
aVgi|406668626|gb|JX401409.1|
p341
aS'-'
aF0.052631578947368418
a(lp342
((I187
I205
t(I290
I346
t(VEVIAPEQVAKGFSSLFAAL
V+ + P+Q    F+SLF  L
VQTLPPQQFQALFNSLFKVL
I-3
ttp343
a((I272
I292
t(I602
I664
t(VWGGSGAGTSHTDTKAAISSLL
VW   GAGT H  ++   +S +
VWSVDGAGTGHPTSQFPYASWV
I-3
ttp344
aaa(lp345
S'>Au9.Cre07.g342200.t1'
p346
aVgi|359385308|emb|FR865725.1|
p347
aS'+'
aF0.015455950540958269
a(lp348
((I441
I450
t(I2303
I2332
t(VSAEFCSEHEV
VS  FC  HEV
VSTGFCRLHEV
I2
ttp349
aaa(lp350
S'>Au9.Cre12.g507650.t1'
p351
aVgi|406668626|gb|JX401409.1|
p352
aS'-'
aF0.14354066985645933
a(lp353
((I298
I316
t(I584
I640
t(VGEPGDLYVYITIKDHPELR
VG P   + Y +   HP  R
VGHPTSQFPYASWVFHPPTR
I-3
ttp354
a((I337
I377
t(I696
I809
t(VTQVKVTTVDGPVELKIPPGTQPGTTLLMAKRGVPRLGSPNV
VTQV+   +     L+      PG TLL  +   P  GS  V
VTQVR-KAICTSAHLRASTRFSPGFTLL--RHSSPSFGSQQV
I-2
ttp355
aaa(lp356
S'>Au9.Cre15.g639700.t1'
p357
aVgi|12055731|emb|AJ400488.1|
p358
aS'+'
aF0.012441679626749611
a(lp359
((I128
I135
t(I12
I35
t(VYPEPELLL
VYP P LLL
VYPHPSLLL
I3
ttp360
aaa(lp361
S'>Au9.Cre13.g586800.t1'
p362
aVgi|406668626|gb|JX401409.1|
p363
aS'-'
aF0.043795620437956206
a(lp364
((I59
I88
t(I127
I201
t(VFPATPTLPFRCCRGILAALTSVTALGLPPL
VFP+ PTL     R  L    SV+  G  PL
VFPSNPTL-----RKHLVRQLSVSLRGSHPL
I-1
ttp365
aaa(lp366
S'>Au9.Cre01.g010000.t1'
p367
aS' '
aS' '
aF0
a(lp368
a(lp369
aa(lp370
S'>Au9.Cre09.g401900.t1'
p371
aS' '
aS' '
aF0
a(lp372
a(lp373
aa(lp374
S'>Au9.Cre12.g516200.t1'
p375
aVgi|406668626|gb|JX401409.1|
p376
aS'-'
aF0.022485207100591716
a(lp377
((I342
I360
t(I761
I817
t(VLPSPAKAQRYRVDVLYEGP
V+P P   +R+    +YE P
VVPKPKSEKRFARQHIYEPP
I-3
ttp378
aaa(lp379
S'>Au9.Cre03.g166900.t1'
p380
aVgi|359385308|emb|FR865725.1|
p381
aS'+'
aF0.016241299303944315
a(lp382
((I179
I192
t(I770
I811
t(VSFSWNNIKNKFPII
V+ +WNN    +PI+
VTLAWNNTIGLWPIL
I2
ttp383
aaa(lp384
S'>Au9.Cre10.g427400.t1'
p385
aVgi|359385308|emb|FR865725.1|
p386
aS'+'
aF0.15254237288135594
a(lp387
((I19
I36
t(I2095
I2148
t(VNVYGGMDMRIERVTASIG
VN Y    +  E V  S+G
VNAYCARALGQEHVCLSVG
I1
ttp388
aaa(lp389
S'>Au9.Cre01.g032100.t1'
p390
aVgi|406668626|gb|JX401409.1|
p391
aS'-'
aF0.032183908045977011
a(lp392
((I58
I71
t(I212
I253
t(VMKPLFSLRRQNSPH
V+ P+FSLR    P+
VLSPVFSLRWDLPPN
I-3
ttp393
aaa(lp394
S'>Au9.Cre12.g561700.t1'
p395
aVgi|359385308|emb|FR865725.1|
p396
aS'+'
aF0.032310177705977383
a(lp397
((I496
I515
t(I2096
I2155
t(VTHLGVPLSWDSDAAAADLYT
VTH+ +  S  S +A+A +YT
VTHIALEPSGKSMSASASVYT
I2
ttp398
aaa(lp399
S'>Au9.Cre12.g542400.t1'
p400
aS' '
aS' '
aF0
a(lp401
a(lp402
aa(lp403
S'>Au9.Cre12.g539400.t1'
p404
aVgi|359385308|emb|FR865725.1|
p405
aS'+'
aF0.042918454935622317
a(lp406
((I278
I297
t(I2096
I2155
t(VTHLGVPLSWDSDAAAADLYT
VTH+ +  S  S +A+A +YT
VTHIALEPSGKSMSASASVYT
I2
ttp407
aaa(lp408
S'>Au9.Cre03.g196950.t1'
p409
aVgi|359385308|emb|FR865725.1|
p410
aS'+'
aF0.025490196078431372
a(lp411
((I314
I326
t(I249
I287
t(VAWACAGARVLELV
VAW CAGA   + +
VAWPCAGAVPFKFL
I3
ttp412
aaa(lp413
S'>Au9.Cre17.g719050.t1'
p414
aVgi|406668626|gb|JX401409.1|
p415
aS'-'
aF0.089700996677740868
a(lp416
((I247
I266
t(I594
I653
t(VWSRHQEACDGQGADRWVFPP
VW RH+ +          FPP
VWCRHRPSHQSVSLRFMGFPP
I-2
ttp417
a((I262
I268
t(I587
I607
t(VWVFPPPI
VWVF PP 
VWVFHPPT
I-3
ttp418
aaa(lp419
S'>Au9.Cre01.g052900.t1'
p420
aVgi|359385308|emb|FR865725.1|
p421
aS'+'
aF0.015228426395939087
a(lp422
((I30
I44
t(I370
I414
t(VQPGSMLPHIRPMAGA
V+P   LPH R  AGA
VEPEKRLPHPRKAAGA
I1
ttp423
aaa(lp424
S'>Au9.Cre06.g272000.t1'
p425
aVgi|359385308|emb|FR865725.1|
p426
aS'-'
aF0.024608501118568233
a(lp427
((I190
I200
t(I282
I314
t(VLSYSAAVAGQK
VLSY   + GQK
VLSYHRKLIGQK
I-1
ttp428
aaa(lp429
S'>Au9.Cre03.g177100.t1'
p430
aVgi|406668626|gb|JX401409.1|
p431
aS'-'
aF0.043307086614173228
a(lp432
((I468
I489
t(I638
I703
t(VNVAERDAFFCLDKVAITAAGSG
VN   R   FC +  ++  AG+G
VNRYARTQTFCRNAWSVDGAGTG
I-3
ttp433
aaa(lp434
S'>Au9.Cre02.g123400.t1'
p435
aVgi|359385308|emb|FR865725.1|
p436
aS'/'
aF0.081521739130434784
a(lp437
((I126
I137
t(I6
I41
t(VVLITEGLAHVCL
V+ +++ L+H CL
VICLSQRLSHACL
I3
ttp438
a((I351
I368
t(I295
I348
t(VILRFPLPELEDMEIPAEV
VILR PLP      +P++V
VILRHPLPPW*ASILPSKV
I-3
ttp439
aaa(lp440
S'>Au9.Cre01.g005200.t1'
p441
aVgi|406668626|gb|JX401409.1|
p442
aS'+'
aF0.034055727554179564
a(lp443
((I786
I802
t(I620
I679
t(VKPTGSM---CTADRECGSGH
VK TG M   CT DR C S  
VKLTGGMACACTIDRPCVSAK
I2
ttp444
a((I807
I819
t(I670
I708
t(VFCRACNADAHCGD
VFC+    +  C D
VFCKRFECEHTCWD
I1
ttp445
aaa(lp446
S'>Au9.Cre07.g314750.t1'
p447
aS' '
aS' '
aF0
a(lp448
a(lp449
aa(lp450
S'>Au9.Cre12.g506650.t1'
p451
aVgi|12055731|emb|AJ400488.1|
p452
aS'+'
aF0.011213047910295617
a(lp453
((I1021
I1042
t(I167
I232
t(VPLATEIEAFWLSDAITCQAGGL
VP + +    WL D    QAG +
VPASADYTKLWLVDFARGQAGNM
I2
ttp454
aaa(lp455
S'>Au9.Cre02.g079850.t1'
p456
aVgi|406668626|gb|JX401409.1|
p457
aS'+'
aF0.013029315960912053
a(lp458
((I427
I434
t(I410
I433
t(VRHGRGLWD
V+HG G WD
VQHGLG*WD
I2
ttp459
aaa(lp460
S'>Au9.Cre11.g478100.t1'
p461
aS' '
aS' '
aF0
a(lp462
a(lp463
aa(lp464
S'>Au9.Cre03.g210700.t1'
p465
aVgi|12055731|emb|AJ400488.1|
p466
aS'+'
aF0.10625
a(lp467
((I60
I76
t(I42
I92
t(VWSRLSDPAAWLRGAALL
VWS  S P  W+  + L+
VWSASSWPQGWIWLSQLV
I3
ttp468
aaa(lp469
S'>Au9.Cre17.g738600.t1'
p470
aVgi|359385308|emb|FR865725.1|
p471
aS'+'
aF0.011986301369863013
a(lp472
((I892
I905
t(I2132
I2173
t(VSASASSPTKPPLSL
VSASAS  T  PLS 
VSASASVYTLTPLSF
I2
ttp473
aaa(lp474
S'>Au9.Cre03.g200150.t1'
p475
aVgi|359385308|emb|FR865725.1|
p476
aS'/'
aF0.053703703703703705
a(lp477
((I440
I445
t(I674
I691
t(VPEAQPR
VPEA+PR
VPEARPR
I-2
ttp478
a((I452
I465
t(I535
I576
t(VRHMLGEETGCWQQV
VR+      GCW Q 
VRYWSWNYRGCWHQT
I-3
ttp479
a((I492
I500
t(I1073
I1099
t(VFNIPAGVWA
VF +P GVW+
VFWVPGGVWS
I2
ttp480
aaa(lp481
S'>Au9.Cre09.g393200.t1'
p482
aVgi|359385308|emb|FR865725.1|
p483
aS'+'
aF0.038690476190476192
a(lp484
((I45
I59
t(I888
I932
t(VIDLGTTNSCVAVMEG
V+DL  TN C ++ +G
VLDL*KTNYCESICQG
I3
ttp485
a((I323
I333
t(I660
I692
t(VNLPFITADASG
V LPF    ASG
VGLPFCRGRASG
I3
ttp486
aaa(lp487
S'>Au9.Cre17.g728650.t1'
p488
aVgi|406668626|gb|JX401409.1|
p489
aS'+'
aF0.015698587127158554
a(lp490
((I518
I527
t(I112
I141
t(VWDVGSERVRT
VW   SERVRT
VWKGASERVRT
I1
ttp491
aaa(lp492
S'>Au9.Cre15.g644950.t1'
p493
aVgi|359385308|emb|FR865725.1|
p494
aS'+'
aF0.13068181818181818
a(lp495
((I43
I49
t(I1016
I1036
t(VRGWLLFF
VR W +FF
VRDWRMFF
I2
ttp496
a((I136
I151
t(I1888
I1935
t(VLASPHPWHTYESATTS
VLAS   WH Y    T+
VLASVALWHAYTPVLTT
I1
ttp497
aaa(lp498
S'>Au9.Cre02.g102050.t1'
p499
aVgi|359385308|emb|FR865725.1|
p500
aS'-'
aF0.026315789473684209
a(lp501
((I49
I61
t(I1012
I1050
t(VWSKGPENLRQSLL
VW    +N+RQSL+
VWRSH*KNIRQSLV
I-3
ttp502
a((I353
I359
t(I501
I521
t(VILVRGFR
VILV+GFR
VILVKGFR
I-1
ttp503
aaa(lp504
S'>Au9.Cre12.g528300.t1'
p505
aVgi|406668626|gb|JX401409.1|
p506
aS'+'
aF0.079178885630498533
a(lp507
((I288
I314
t(I537
I614
t(VFKAPRILVTKARGHTCFDVHFYRTHNP
VF  P +L    R  TC  V  ++TH  
VFNRP-VLKHGPRSLTCMRVGGWKTHEA
I3
ttp508
aaa(lp509
S'>Au9.Cre13.g570150.t1'
p510
aVgi|406668626|gb|JX401409.1|
p511
aS'-'
aF0.027406886858749122
a(lp512
((I1283
I1320
t(I119
I235
t(VLQLKLEAGGGAPPQQPDGSGS-LPAQESQPAPAQPAPTP
VL+  L    G  P+QPD S +   A + +     P+ TP
VLRWDLPPNLGCIPKQPDSSKAPREATKRELTGFSPSLTP
I-3
ttp513
aaa(lp514
S'>Au9.Cre10.g437100.t1'
p515
aS' '
aS' '
aF0
a(lp516
a(lp517
aa(lp518
S'>Au9.Cre16.g648750.t1'
p519
aVgi|406668626|gb|JX401409.1|
p520
aS'-'
aF0.041518987341772152
a(lp521
((I569
I588
t(I727
I780
t(VAVSTACHVMLTWMVAHPAAA
V+ ST+ H + TW+  HPA A
VSTSTSLHQVFTWL--HPAQA
I-1
ttp522
a((I871
I890
t(I607
I666
t(VHGASVLPAQPPPPPMPRTLH
VHG S++ AQ  PP    TLH
VHGRSMVQAQAIPPVSFLTLH
I-1
ttp523
a((I1833
I1874
t(I602
I721
t(VEHLAGYHSRLQRQAAAAAAAQAGGAGGGAGHDSLQLPGAAAL
V HL+G +   + Q     A    GA  G GH + Q P A+ +
VHHLSGPNRYARTQTFCRNAWSVDGA--GTGHPTSQFPYASWV
I-3
ttp524
aaa(lp525
S'>Au9.Cre16.g671100.t1'
p526
aVgi|359385308|emb|FR865725.1|
p527
aS'+'
aF0.070815450643776826
a(lp528
((I4
I36
t(I1913
I1978
t(VLVAQVVALSNPNDINQLLTTLKSSEAVFTQNYQ
VL+ Q   LS PN           SEA+   N+Q
VLIHQC*PLSKPN-----------SEALIAINWQ
I2
ttp529
aaa(lp530
S'>Au9.Cre01.g041050.t1'
p531
aVgi|406668626|gb|JX401409.1|
p532
aS'+'
aF0.048387096774193547
a(lp533
((I464
I493
t(I640
I729
t(VLSFYRLPVKYVPQVFRCPLSPWLPSAGMLA
VL  +  P     + F C  + W P  G L 
VLCLHHRPTMRFCKRFECEHTCWDPKDGELC
I1
ttp534
aaa(lp535
S'>Au9.Cre02.g139500.t1'
p536
aVgi|12055731|emb|AJ400488.1|
p537
aS'+'
aF0.022160664819944598
a(lp538
((I110
I117
t(I139
I162
t(VDLGINWAG
VD+G NW G
VDMGFNWIG
I1
ttp539
aaa(lp540
S'>Au9.Cre14.g620550.t1'
p541
aVgi|359385308|emb|FR865725.1|
p542
aS'-'
aF0.24324324324324326
a(lp543
((I178
I221
t(I391
I579
t(VVRAWRSKGREVWH--------------VVVEVTQQERSALIRVAQQVRAAG-----AVVAPYL
V+R W    R  WH              V++ +T+ +   ++     +  +G     A   P++
VIRYWSWNYRGCWHQTCPPMDPR*GI*IVLIPITRHKMPGIVIYCHYLPVSGLGNLRACCLPWM
I-3
ttp544
aaa(lp545
S'>Au9.Cre02.g113850.t1'
p546
aVgi|359385308|emb|FR865725.1|
p547
aS'-'
aF0.032608695652173912
a(lp548
((I280
I291
t(I445
I480
t(VRSAFPDIAWACH
VR   P I   CH
VRHKMPGIVIYCH
I-3
ttp549
aaa(lp550
S'>Au9.Cre15.g645200.t1'
p551
aVgi|406668626|gb|JX401409.1|
p552
aS'+'
aF0.5714285714285714
a(lp553
((I7
I39
t(I431
I562
t(VDKSLGNVKAKVKELV--------FSTMS---YIKNKQRNRLEQR
VDKS+G   A    L         F   S    +K  Q  RLE R
VDKSVG*YHAAATGLTKA*RLPLSFGNCSLKMLVKGFQPTRLETR
I2
ttp554
aaa(lp555
S'>Au9.Cre09.g405600.t1'
p556
aS' '
aS' '
aF0
a(lp557
a(lp558
aa(lp559
S'>Au9.Cre06.g300100.t1'
p560
aVgi|12055731|emb|AJ400488.1|
p561
aS'-'
aF0.062295081967213117
a(lp562
((I252
I269
t(I60
I116
t(VAGARPL-VFATGNPVLPLR
VA A P+ V   G P  PLR
VASANPIGVNQLGKPDPPLR
I-3
ttp563
aaa(lp564
S'>Au9.Cre10.g462150.t1'
p565
aVgi|359385308|emb|FR865725.1|
p566
aS'-'
aF0.0091889732321214536
a(lp567
((I565
I573
t(I685
I711
t(VRLPPPEAQQ
VR+P  EAQ+
VRVPDSEAQK
I-3
ttp568
a((I568
I581
t(I584
I625
t(VPPEAQQQQQQQQQL
VPPE Q +    QQL
VPPEIQLRAF*LQQL
I-2
ttp569
aaa(lp570
S'>Au9.Cre13.g583950.t1'
p571
aVgi|359385308|emb|FR865725.1|
p572
aS'+'
aF0.064272211720226846
a(lp573
((I343
I368
t(I1043
I1096
t(VLREEGRTNQEAITEVVTVLTAPGGSW
VLR+    NQ            PGG W
VLRQHLMRNQS--------FWVPGGVW
I2
ttp574
a((I401
I408
t(I1125
I1148
t(VRKGNRKRG
VRKG  +RG
VRKGTTRRG
I3
ttp575
aaa(lp576
S'>Au9.Cre09.g406800.t1'
p577
aS' '
aS' '
aF0
a(lp578
a(lp579
aa(lp580
S'>Au9.Cre04.g211800.t1'
p581
aVgi|406668626|gb|JX401409.1|
p582
aS'+'
aF0.048000000000000001
a(lp583
((I110
I115
t(I394
I411
t(VCADLWP
VCA+ WP
VCAERWP
I1
ttp584
aaa(lp585
S'>Au9.Cre14.g629200.t1'
p586
aS' '
aS' '
aF0
a(lp587
a(lp588
aa(lp589
S'>Au9.Cre06.g276450.t1'
p590
aS' '
aS' '
aF0
a(lp591
a(lp592
aa(lp593
S'>Au9.Cre10.g418650.t1'
p594
aS' '
aS' '
aF0
a(lp595
a(lp596
aa(lp597
S'>Au9.Cre17.g712950.t1'
p598
aVgi|359385308|emb|FR865725.1|
p599
aS'-'
aF0.011968880909634948
a(lp600
((I46
I65
t(I1862
I1921
t(VVYRTASPWLIAASRAIAPAC
VVY+ A   L+   + +APAC
VVYKHAKAPLMQVIKLLAPAC
I-2
ttp601
aaa(lp602
S'>Au9.Cre09.g414050.t1'
p603
aVgi|359385308|emb|FR865725.1|
p604
aS'+'
aF0.02197802197802198
a(lp605
((I313
I322
t(I1803
I1832
t(VTYLNRALESS
VTYL RAL +S
VTYLFRALAAS
I3
ttp606
aaa(lp607
S'>Au9.Cre20.g758050.t1'
p608
aVgi|406668626|gb|JX401409.1|
p609
aS'+'
aF0.044247787610619468
a(lp610
((I403
I422
t(I580
I639
t(VMCELLGGPAAAAAAAAAGAG
V+CEL+GG            G
VVCELVGGKPMKRKETDWWDG
I1
ttp611
aaa(lp612
S'>Au9.Cre06.g293150.t1'
p613
aVgi|359385308|emb|FR865725.1|
p614
aS'/'
aF0.091428571428571428
a(lp615
((I118
I131
t(I2273
I2314
t(VGPDEWFKWETKCGY
VGPD  F W    G+
VGPDMGFNWIGSTGF
I2
ttp616
a((I315
I332
t(I1073
I1126
t(VRSVLLAAGREPYRPQNTE
VR  L  +   PY P+N +
VRQFL*VSALRPYSPRNPK
I-2
ttp617
aaa(lp618
S'>Au9.Cre03.g197850.t1'
p619
aVgi|406668626|gb|JX401409.1|
p620
aS'+'
aF0.084459459459459457
a(lp621
((I256
I280
t(I653
I727
t(VLKEPARSQKGLPARPVVGTAITIRF
V+  P  S KGL A   VGT   + +
VIDRPCVSAKGLSASIPVGTRKMVNY
I2
ttp622
aaa(lp623
S'>Au9.Cre17.g722500.t1'
p624
aVgi|406668626|gb|JX401409.1|
p625
aS'-'
aF0.047619047619047616
a(lp626
((I110
I121
t(I104
I139
t(VYSYSRTPVMRRL
V+S S TP+ RRL
VFSPSLTPLSRRL
I-3
ttp627
aaa(lp628
S'>Au9.Cre06.g311750.t1'
p629
aVgi|12055731|emb|AJ400488.1|
p630
aS'+'
aF0.020519835841313269
a(lp631
((I318
I332
t(I210
I254
t(VLEAVEASLFECPALT
VLEA + + F C  L+
VLEAKQETCFACLKLS
I3
ttp632
aaa(lp633
S'>Au9.Cre23.g766200.t1'
p634
aVgi|406668626|gb|JX401409.1|
p635
aS'/'
aF0.085946573751451802
a(lp636
((I253
I277
t(I542
I616
t(VLAELQLADSTRVYNGLLGAAGRAGR
V A       TR++  LLG   + GR
VYASWVFHPPTRIHVRLLGPCFKTGR
I-3
ttp637
a((I269
I286
t(I344
I397
t(VLGAAGRAGRWREAQALYI
VL A  R+G W    ALY+
VLNARVRSGLWVLNGALYV
I2
ttp638
a((I622
I652
t(I632
I724
t(VGAAGAAVPDSPTASSAAASASSPAGAAATVS
VG A A   D P  S+   SAS P G    V+
VGMACACTIDRPCVSAKGLSASIPVGTRKMVN
I2
ttp639
aaa(lp640
S'>Au9.Cre11.g471450.t1'
p641
aVgi|359385308|emb|FR865725.1|
p642
aS'/'
aF0.29447852760736198
a(lp643
((I38
I62
t(I1838
I1912
t(VHAKSHRFRLCKLASKILLVASGEPF
VHAK+   ++ KL +       GEP 
VHAKAPLMQVIKLLAPACKYXLGEPI
I-2
ttp644
a((I75
I97
t(I2078
I2146
t(VDPSTLAVAAALETTAQDFIAAAD
V+PS L    ALE + +   A+A 
VEPSNL*THIALEPSGKSMSASAS
I2
ttp645
aaa(lp646
S'>Au9.Cre02.g136000.t1'
p647
aVgi|359385308|emb|FR865725.1|
p648
aS'-'
aF0.0055788005578800556
a(lp649
((I47
I54
t(I2194
I2217
t(VPEPALRPT
VP+P LRPT
VPDPPLRPT
I-3
ttp650
aaa(lp651
S'>Au9.Cre21.g761700.t1'
p652
aVgi|406668626|gb|JX401409.1|
p653
aS'/'
aF1.0338983050847457
a(lp654
((I4
I23
t(I166
I225
t(VHEALSEDDIDYLSMTVLVVS
VHE LS+  + +     LVV+
VHEVLSKSRVAWECSPNLVVN
I1
ttp655
a((I6
I46
t(I484
I606
t(VALSEDDIDYLSMTVLVVSRKIGIFSDMSMSWMPICAEKGLL
V  S   + Y+  +++ VSR++G     S+  +    +KG L
VGFSTHQLAYMLDSLVRVSRRVG*KPFTSILRLQFPKDKGSL
I-1
ttp656
aaa(lp657
S'>Au9.Cre03.g160450.t1'
p658
aVgi|406668626|gb|JX401409.1|
p659
aS'-'
aF0.013784461152882205
a(lp660
((I727
I737
t(I551
I583
t(VLHIRAFGPVIR
V+H+R  GP  +
VIHVRLLGPCFK
I-3
ttp661
aaa(lp662
S'>Au9.Cre03.g192450.t1'
p663
aVgi|406668626|gb|JX401409.1|
p664
aS'+'
aF0.0050295857988165681
a(lp665
((I993
I1009
t(I403
I453
t(VRPPAWLWSSGQRLGQPP
VR PAW+   GQ+ G  P
VRWPAWVRLVGQKRGLIP
I1
ttp666
aaa(lp667
S'>Au9.Cre06.g306150.t1'
p668
aVgi|359385308|emb|FR865725.1|
p669
aS'-'
aF0.060158910329171394
a(lp670
((I688
I736
t(I541
I699
t(VSAASEPAADVASSFTSSAAAATAAAAASAA----ASSSYEVKYWYDVQRLHWH
VS A +P  D     +S+    TA     +       ++  ++YW    R  WH
VSEAQKPVPDRKEGHSSTHHRRTARTHPKSNYELFNCNNLNIRYWSWNYRGCWH
I-3
ttp671
aaa(lp672
S'>Au9.Cre13.g586700.t1'
p673
aVgi|359385308|emb|FR865725.1|
p674
aS'/'
aF0.018708240534521157
a(lp675
((I816
I831
t(I263
I310
t(VRFCSVGVSALLGFPIR
VR CS+ +SAL  F  R
VRRCSIQISALSTFDGR
I2
ttp676
a((I897
I922
t(I2038
I2115
t(VGSSTLCVVQVDKVGQDEVHDEKRLVL
VGSS +CV + D      +H   R+ L
VGSSAICVQRFDGSRNSAIHTTYRISL
I-3
ttp677
aaa(lp678
S'>Au9.Cre02.g133200.t1'
p679
aS' '
aS' '
aF0
a(lp680
a(lp681
aa(lp682
S'>Au9.Cre01.g027700.t1'
p683
aVgi|359385308|emb|FR865725.1|
p684
aS'+'
aF0.045045045045045043
a(lp685
((I313
I332
t(I2186
I2245
t(VEAALGEEGGAEMDAWRTALG
V+  +G  GG+    W T +G
VQLLVGLRGGSGFPNWFTPIG
I2
ttp686
aaa(lp687
S'>Au9.Cre02.g113600.t1'
p688
aVgi|359385308|emb|FR865725.1|
p689
aS'+'
aF0.012121212121212121
a(lp690
((I637
I646
t(I773
I802
t(VLHYNNSVDAW
VL +NN++  W
VLAWNNTIGLW
I2
ttp691
aaa(lp692
S'>Au9.Cre18.g747400.t1'
p693
aVgi|359385308|emb|FR865725.1|
p694
aS'-'
aF0.029601029601029602
a(lp695
((I729
I751
t(I372
I440
t(VGPYAAAAAAAAAAAATGGSRGEG
V PY      A AA    GSR  G
VSPYQDWVICAPAAFLGCGSRFSG
I-1
ttp696
aaa(lp697
S'>Au9.Cre10.g435750.t1'
p698
aS' '
aS' '
aF0
a(lp699
a(lp700
aa(lp701
S'>Au9.Cre02.g083250.t1'
p702
aVgi|12055731|emb|AJ400488.1|
p703
aS'+'
aF0.043478260869565216
a(lp704
((I96
I101
t(I67
I84
t(VGGSGLP
VGGSG P
VGGSGFP
I1
ttp705
aaa(lp706
S'>Au9.Cre06.g290000.t1'
p707
aVgi|406668626|gb|JX401409.1|
p708
aS'+'
aF0.036303630363036306
a(lp709
((I182
I192
t(I531
I563
t(VSAGGKPVFSHG
V A  +PV  HG
VKAFNRPVLKHG
I3
ttp710
aaa(lp711
S'>Au9.Cre06.g282250.t1'
p712
aVgi|406668626|gb|JX401409.1|
p713
aS'+'
aF0.015981735159817351
a(lp714
((I685
I698
t(I614
I655
t(VLEQLTGGGFAACVV
V+ +LTGG   AC +
VVRKLTGGMACACTI
I2
ttp715
aaa(lp716
S'>Au9.Cre02.g133250.t1'
p717
aVgi|406668626|gb|JX401409.1|
p718
aS'-'
aF0.21363636363636362
a(lp719
((I56
I82
t(I247
I327
t(VDINQVAMMLVVIKTSYPGANVGKIVSR
V+      +     +S+P       VSR
VNFKHYLTLFSKFFSSFPHGTCSLSVSR
I-1
ttp720
a((I91
I110
t(I275
I334
t(VPEQLQADAAVIRKVLAGAPN
VP+Q QA    + KVL   P+
VPQQFQALFNSLFKVLFIFPS
I-3
ttp721
aaa(lp722
S'>Au9.Cre03.g192150.t1'
p723
aVgi|406668626|gb|JX401409.1|
p724
aS'-'
aF0.14516129032258066
a(lp725
((I32
I58
t(I400
I480
t(VAAITAAAAAAYSALVPQQQPQSDLPAL
VA +   AAA Y   +    P    PAL
VALVKPVAAAWYQPTLLSH*PNPCWPAL
I-1
ttp726
aaa(lp727
S'>Au9.Cre07.g312400.t1'
p728
aS' '
aS' '
aF0
a(lp729
a(lp730
aa(lp731
S'>Au9.Cre17.g734100.t1'
p732
aVgi|359385308|emb|FR865725.1|
p733
aS'+'
aF0.043196544276457881
a(lp734
((I116
I129
t(I1096
I1131
t(VIRRLKEKGVQVDGR
V+ RLK KG  +DGR
VVARLKLKG--IDGR
I1
ttp735
a((I162
I167
t(I1131
I1148
t(VGTTKRG
VGTT+RG
VGTTRRG
I3
ttp736
aaa(lp737
S'>Au9.Cre01.g063800.t1'
p738
aVgi|359385308|emb|FR865725.1|
p739
aS'/'
aF0.088757396449704137
a(lp740
((I329
I354
t(I212
I289
t(VGGSGGGTAAAIGHVLGEGFGAALGSA
VG +  GTA A GH L E      GS+
VGRNLNGTAPAQGHALREDIMIHRGSS
I-2
ttp741
a((I476
I494
t(I1082
I1138
t(VPGGVHGRGATARSTARSHH
VPGGV  +G   +     HH
VPGGVWSQG*NLKELTEGHH
I2
ttp742
aaa(lp743
S'>Au9.Cre03.g203100.t1'
p744
aVgi|406668626|gb|JX401409.1|
p745
aS'-'
aF0.077490774907749083
a(lp746
((I194
I219
t(I687
I761
t(VARFAIPGFRPAMHGSGSSSRSGYCCH
V RF+ PGF    H S S      C H
VTRFS-PGFTLLRHSSPSFGSQQVCSH
I-2
ttp747
a((I258
I284
t(I455
I565
t(VGCCSLVGELELYAASLRR----------RLGLDAGSG
VG C   G L+ +   L            RLG  +GSG
VGPCFKTGRLKAFHQHLETAVPEGQGQSSRLGQASGSG
I-3
ttp748
aaa(lp749
S'>Au9.Cre06.g310250.t1'
p750
aVgi|406668626|gb|JX401409.1|
p751
aS'-'
aF0.055248618784530384
a(lp752
((I15
I24
t(I160
I189
t(VPSLRRHELGQ
VP+LR+H + Q
VPTLRKHLVRQ
I-1
ttp753
aaa(lp754
S'>Au9.Cre02.g101350.t1'
p755
aS' '
aS' '
aF0
a(lp756
a(lp757
aa(lp758
S'>Au9.Cre01.g018100.t1'
p759
aVgi|359385308|emb|FR865725.1|
p760
aS'+'
aF0.029729729729729731
a(lp761
((I182
I192
t(I223
I255
t(VGKSVYVHCAHG
VG+S Y+H AHG
VGES*YLHEAHG
I1
ttp762
aaa(lp763
S'>Au9.Cre16.g657250.t1'
p764
aVgi|406668626|gb|JX401409.1|
p765
aS'-'
aF0.055160142348754451
a(lp766
((I149
I160
t(I685
I720
t(VTATRLPNGMITI
VT  R+P GM+ +
VTIFRVPTGMLAL
I-1
ttp767
a((I530
I548
t(I707
I763
t(VPPNANVAPPGPYMIFLLSG
VPP  ++A P   ++  LSG
VPPGFHLASPCSGIVHHLSG
I-3
ttp768
aaa(lp769
S'>Au9.Cre13.g584600.t1'
p770
aVgi|359385308|emb|FR865725.1|
p771
aS'-'
aF0.019817073170731708
a(lp772
((I546
I558
t(I2208
I2246
t(VVQSEQLAWARQLH
V QSE   W  Q+H
VTQSE*TNWESQIH
I-1
ttp773
aaa(lp774
S'>Au9.Cre14.g613500.t1'
p775
aVgi|406668626|gb|JX401409.1|
p776
aS'-'
aF0.060402684563758392
a(lp777
((I22
I37
t(I209
I256
t(VGLSTALALTRVLSPNV
VGLS   +L   L PN+
VGLSPVFSLRWDLPPNL
I-3
ttp778
a((I239
I249
t(I605
I637
t(VHPPEQLELSSW
VHP  Q   +SW
VHPTSQFPYASW
I-3
ttp779
aaa(lp780
S'>Au9.Cre10.g464750.t1'
p781
aVgi|359385308|emb|FR865725.1|
p782
aS'-'
aF0.022140221402214021
a(lp783
((I61
I66
t(I526
I543
t(VHQALPP
VHQ  PP
VHQTCPP
I-3
ttp784
aaa(lp785
S'>Au9.Cre01.g033350.t1'
p786
aVgi|12055731|emb|AJ400488.1|
p787
aS'+'
aF0.057233704292527825
a(lp788
((I276
I311
t(I23
I130
t(VVTGYGEAGSALVTGGVDKVIFVGSTQVGKMVMRAAA
V++ +G   S  +  GVD    +GS ++G + +R  +
VLSPFGGLVSF*LASGVDLAFPIGSLRLGWLKLRGLS
I2
ttp789
aaa(lp790
S'>Au9.Cre16.g686500.t1'
p791
aS' '
aS' '
aF0
a(lp792
a(lp793
aa(lp794
S'>Au9.Cre07.g340400.t1'
p795
aVgi|359385308|emb|FR865725.1|
p796
aS'/'
aF0.060475161987041039
a(lp797
((I482
I497
t(I258
I305
t(VHEFMIGEKLAWGSGAS
VH  +IG+K  W S  +
VHRKLIGQKFEWNSAGT
I-1
ttp798
a((I699
I738
t(I860
I964
t(VSILAAVGEIAGGEDWAAARQHLSRELLERLMSMDPQAAWA
VS     GEI G       R+HL      R+ S+    +W 
VSYFIVRGEILGFMKDELLRKHLP-----RMFSLIKNESWG
I2
ttp799
aaa(lp800
S'>Au9.Cre06.g275250.t1'
p801
aS' '
aS' '
aF0
a(lp802
a(lp803
aa(lp804
S'>Au9.Cre01.g047700.t1'
p805
aVgi|359385308|emb|FR865725.1|
p806
aS'+'
aF0.042440318302387266
a(lp807
((I203
I218
t(I2152
I2199
t(VYPEDADRPEGEAEAAW
VYP  +   EG + ++W
VYPHPSLLLEGWSASSW
I1
ttp808
aaa(lp809
S'>Au9.Cre17.g733650.t1'
p810
aS' '
aS' '
aF0
a(lp811
a(lp812
aa(lp813
S'>Au9.Cre06.g286600.t1'
p814
aS' '
aS' '
aF0
a(lp815
a(lp816
aa(lp817
S'>Au9.Cre03.g186450.t1'
p818
aVgi|359385308|emb|FR865725.1|
p819
aS'+'
aF0.026785714285714284
a(lp820
((I159
I166
t(I1058
I1081
t(VIRNQKYWL
V+RNQ +W+
VMRNQSFWV
I2
ttp821
a((I219
I225
t(I2166
I2186
t(VSPFGGLA
VSPFGGL 
VSPFGGLV
I3
ttp822
aaa(lp823
S'>Au9.Cre07.g329200.t1'
p824
aS' '
aS' '
aF0
a(lp825
a(lp826
aa(lp827
S'>Au9.Cre09.g406300.t1'
p828
aVgi|406668626|gb|JX401409.1|
p829
aS'/'
aF0.099821746880570411
a(lp830
((I270
I296
t(I128
I241
t(VYSIAMDLSPDL-----------VPRELTGGRGYGYSGS
V+S+  DL P+L            PRE T     G+S S
VFSLRWDLPPNLGCIPKQPDSSKAPREATKRELTGFSPS
I-3
ttp831
a((I284
I301
t(I586
I639
t(VELTGGRGYGYSGSSWYGG
VEL GG+      + W+ G
VELVGGKPMKRKETDWWDG
I1
ttp832
aaa(lp833
S'>Au9.Cre12.g484350.t1'
p834
aVgi|359385308|emb|FR865725.1|
p835
aS'+'
aF0.016897081413210446
a(lp836
((I393
I403
t(I1884
I1916
t(VLATLSGVLACL
V+  +SG LACL
VITCISGALACL
I3
ttp837
aaa(lp838
S'>Au9.Cre16.g688450.t1'
p839
aS' '
aS' '
aF0
a(lp840
a(lp841
aa(lp842
S'>Au9.Cre04.g213350.t1'
p843
aVgi|359385308|emb|FR865725.1|
p844
aS'/'
aF0.010303030303030303
a(lp845
((I1362
I1372
t(I2071
I2103
t(VIVSQRFDGTRS
VI  QRFDG+R+
VICVQRFDGSRN
I-3
ttp846
a((I1627
I1649
t(I2283
I2351
t(VGASTGHMGPASSDGKHGSPVDKA
V ASTG + PAS+D      VD A
VWASTG*VAPASADYTKLWLVDFA
I3
ttp847
aaa(lp848
S'>Au9.Cre15.g639650.t1'
p849
aVgi|406668626|gb|JX401409.1|
p850
aS'-'
aF0.061359867330016582
a(lp851
((I329
I365
t(I224
I322
t(VQGISNSLWAMAVLGGTSFPGMQQLAVQLARDAAGRWE
VQ + NSL+ +  +    FP     A+ L+   + RW+
VQALFNSLFKVLFI----FPSRYLFAIGLSPVFSLRWD
I-3
ttp852
aaa(lp853
S'>Au9.Cre01.g070250.t1'
p854
aS' '
aS' '
aF0
a(lp855
a(lp856
aa(lp857
S'>Au9.Cre17.g722050.t1'
p858
aS' '
aS' '
aF0
a(lp859
a(lp860
aa(lp861
S'>Au9.Cre17.g708350.t1'
p862
aS' '
aS' '
aF0
a(lp863
a(lp864
aa(lp865
S'>Au9.Cre01.g035500.t1'
p866
aVgi|12055731|emb|AJ400488.1|
p867
aS'+'
aF0.01343408900083963
a(lp868
((I397
I412
t(I9
I56
t(VLFPHPVLCYQHVAAAA
VL+PHP L  +  +A++
VLYPHPSLLLEGWSASS
I3
ttp869
aaa(lp870
S'>Au9.Cre01.g017850.t1'
p871
aVgi|359385308|emb|FR865725.1|
p872
aS'+'
aF0.026143790849673203
a(lp873
((I507
I514
t(I1004
I1027
t(VTVPGGGWR
VT+P   WR
VTMPTRDWR
I2
ttp874
a((I508
I515
t(I1079
I1102
t(VVPGGGWRK
VVPGG W +
VVPGGVWSQ
I2
ttp875
aaa(lp876
S'>Au9.Cre02.g104150.t1'
p877
aVgi|359385308|emb|FR865725.1|
p878
aS'+'
aF0.0092681367849153078
a(lp879
((I1797
I1817
t(I2126
I2191
t(VAMIASAAAAATTPLTA-REGDL
V+M ASA+    TPL+  R G L
VSMSASASVYTLTPLSFWRAGQL
I2
ttp880
a((I1854
I1860
t(I2221
I2241
t(VSQLLHMD
VSQL+H D
VSQLVHSD
I1
ttp881
aaa(lp882
S'>Au9.Cre06.g294750.t1'
p883
aVgi|359385308|emb|FR865725.1|
p884
aS'/'
aF0.21671018276762402
a(lp885
((I109
I173
t(I636
I818
t(VNPTQIAQLLTCMMM---SGPFL---TGYTQTINDWYDREIDAINEPYRPIPSGRISERDVIVQIWVLLLGG
V PT+ A++L+C  M   SG  L     +TQ+  +  D E   + +P  P P+ R +       I VL +GG
VRPTR*ARVLSCYSMLKYSGVSLL*TL*FTQS--NHVDSESRTV-KPRSPSPTERKA-------IAVLTIGG
I-1
ttp886
a((I257
I268
t(I1017
I1052
t(VGLGIAIVNDFKS
VG+G    NDF S
VGIGECFFNDFAS
I3
ttp887
aaa(lp888
S'>Au9.Cre07.g317150.t1'
p889
aVgi|406668626|gb|JX401409.1|
p890
aS'+'
aF0.1876675603217158
a(lp891
((I183
I232
t(I481
I609
t(VVQRAQVRRLLASQSAGS-IST-PASITSAATRGVAPVRAPVSSSIGVGGKPL
VV+ A V R L SQ AG  +ST P+  T      V  +         VGGKP+
VVKTALVLRELQSQDAGERLSTDPS*NTDQGV*HVCEL---------VGGKPM
I1
ttp892
a((I208
I225
t(I105
I158
t(VSAATRGVAPVRAPVSSSI
VS   RGV     PVSS +
VSLLERGVREGENPVSSRL
I3
ttp893
aaa(lp894
S'>Au9.Cre16.g668050.t1'
p895
aVgi|359385308|emb|FR865725.1|
p896
aS'-'
aF0.017857142857142856
a(lp897
((I285
I290
t(I165
I182
t(VYVPSRS
VYVPSRS
VYVPSRS
I-1
ttp898
aaa(lp899
S'>Au9.Cre04.g222400.t1'
p900
aVgi|359385308|emb|FR865725.1|
p901
aS'-'
aF0.010033444816053512
a(lp902
((I260
I265
t(I959
I976
t(VIIFEPP
VI+FEPP
VIVFEPP
I-2
ttp903
aaa(lp904
S'>Au9.Cre06.g306850.t1'
p905
aVgi|406668626|gb|JX401409.1|
p906
aS'-'
aF0.08531746031746032
a(lp907
((I220
I252
t(I223
I351
t(VGLRRDPINEMVVVGT----------HGKLKNWVQKRLLDLDGV
V  +R P+N      T          HG     V ++ L LDG+
VAFKRFPLNNFKHYLTLFSKFFSSFPHGTCSLSVSRQYLALDGI
I-1
ttp908
aaa(lp909
S'>Au9.Cre15.g647350.t1'
p910
aVgi|359385308|emb|FR865725.1|
p911
aS'/'
aF0.10597826086956522
a(lp912
((I148
I165
t(I757
I810
t(VLTPDALEGDNAERTLRQL
VLTP+    +  +RTL  L
VLTPEYFSME*HDRTLAYL
I1
ttp913
a((I259
I278
t(I901
I963
t(VPEPAYTLRE-IEGACGSGSSS
VP+ ++ + E I G C   SSS
VPQLSFLINENILGKCFRSSSS
I-3
ttp914
aaa(lp915
S'>Au9.Cre08.g361150.t1'
p916
aVgi|406668626|gb|JX401409.1|
p917
aS'+'
aF0.066176470588235295
a(lp918
((I250
I282
t(I730
I837
t(VLSSSLPGSQLLDA---GFVENKKRGWSMPDKLKRPY
VLS   PG  L++A     V+   R W    K  RP+
VLSRVKPGENLVEARRCADVQIAFRTWV*EQKTNRPF
I1
ttp919
aaa(lp920
S'>Au9.Cre02.g110650.t1'
p921
aVgi|359385308|emb|FR865725.1|
p922
aS'+'
aF0.04665314401622718
a(lp923
((I608
I653
t(I886
I1005
t(VAWTEQLLALAKAKAKDNVHHSHLFKTPDMLVATFQRVDLPVVPILD
V+W  +    AKA AKD      +F   +  +   +R+D  VV  ++
VSWIYERRTTAKAFAKD------VFINQERKLGARRRLDTVVVSTIN
I1
ttp924
aaa(lp925
S'>Au9.Cre09.g389550.t1'
p926
aVgi|406668626|gb|JX401409.1|
p927
aS'-'
aF0.095890410958904104
a(lp928
((I143
I171
t(I514
I600
t(VDSHRLMDVINAAIQAGEVERYKPYTSWAK
V +H+L  ++++ ++       KP+TS  +
VSTHQLAYMLDSLVRVSRRVG*KPFTSILR
I-1
ttp929
a((I165
I170
t(I602
I619
t(VPYTSWA
VPY SW 
VPYASWV
I-3
ttp930
aaa(lp931
S'>Au9.Cre17.g718100.t1'
p932
aVgi|12055731|emb|AJ400488.1|
p933
aS'+'
aF0.012444444444444444
a(lp934
((I1110
I1123
t(I216
I257
t(VASMEECCACMPRCT
VA  E C AC+   T
VAKQETCFACLKLST
I3
ttp935
aaa(lp936
S'>Au9.Cre03.g170050.t1'
p937
aVgi|359385308|emb|FR865725.1|
p938
aS'-'
aF0.21678321678321677
a(lp939
((I53
I83
t(I2266
I2349
t(VQRPTTTSTGHRTMEPRPVNAHVQQPLSSPML
VQ P   ++  R    +PV     +P+S P L
VQSPQAITSCSRQ---KPVLPIQLKPISGPCL
I-3
ttp940
aaa(lp941
S'>Au9.Cre07.g320300.t1'
p942
aVgi|406668626|gb|JX401409.1|
p943
aS'-'
aF0.093220338983050849
a(lp944
((I42
I52
t(I5
I37
t(VSGAVGQLDSFL
VSGA+   DS++
VSGALSARDSYM
I-3
ttp945
aaa(lp946
S'>Au9.Cre10.g457000.t1'
p947
aVgi|406668626|gb|JX401409.1|
p948
aS'-'
aF0.11127379209370425
a(lp949
((I13
I76
t(I453
I680
t(VLTTKEWKEEWGGHKGAKAAAPFKRLPF-----HCCAINFTPFED-------PVCTDDGTVYDIASIVPYIMKFKKH
VL  K     W  H+ +  +   + + F     H C   ++ F+D       P   D  +    A   P+  ++++H
VLLQKRMVGRWCRHRPSHQSVSLRFMGFPPTNSHTC*TPWSVFQDGSVESLSPAS*DCSSRRTRAVFTPWSSQWQRH
I-2
ttp950
aaa(lp951
S'>Au9.Cre06.g253250.t1'
p952
aS' '
aS' '
aF0
a(lp953
a(lp954
aa(lp955
S'>Au9.Cre08.g376600.t1'
p956
aVgi|359385308|emb|FR865725.1|
p957
aS'-'
aF0.053913043478260869
a(lp958
((I406
I425
t(I742
I801
t(VESPVAVAAVAVAADSPALRT
V+SP+ +    V    PAL T
VQSPIVLFHAKVFWRKPALNT
I-3
ttp959
a((I468
I478
t(I1083
I1115
t(VLSFAAAATTPP
VLSF+ A   PP
VLSFSLATILPP
I-1
ttp960
aaa(lp961
S'>Au9.Cre33.g783100.t1'
p962
aVgi|359385308|emb|FR865725.1|
p963
aS'+'
aF0.082568807339449546
a(lp964
((I17
I25
t(I2153
I2179
t(VSLTPLDGLR
V+LTPL   R
VTLTPLSFWR
I2
ttp965
aaa(lp966
S'>Au9.Cre11.g477000.t1'
p967
aVgi|359385308|emb|FR865725.1|
p968
aS'-'
aF0.029850746268656716
a(lp969
((I271
I290
t(I2074
I2133
t(VNYMAPEVLLAGPAQRYDGAK
V+ + PE   A   QR+DG++
VDMLLPEGSSAICVQRFDGSR
I-3
ttp970
aaa(lp971
S'>Au9.Cre12.g532450.t1'
p972
aVgi|359385308|emb|FR865725.1|
p973
aS'+'
aF0.04060913705583756
a(lp974
((I357
I380
t(I242
I313
t(VTASIDVCRGLLLDGAALSVYDPKV
VT  + +CR   +  +ALS +D ++
VTKRMALCRRCSIQISALSTFDGRI
I2
ttp975
aaa(lp976
S'>Au9.Cre02.g086950.t1'
p977
aVgi|359385308|emb|FR865725.1|
p978
aS'-'
aF0.015665796344647518
a(lp979
((I234
I250
t(I648
I701
t(VTVRP-SPSAPEGAAGAVL
VTV+P SPS  E  A AVL
VTVKPRSPSPTERKAIAVL
I-1
ttp980
aaa(lp981
S'>Au9.Cre12.g523100.t1'
p982
aVgi|406668626|gb|JX401409.1|
p983
aS'-'
aF0.026359143327841845
a(lp984
((I277
I292
t(I676
I723
t(VWTLFSIISGMLYFQEY
V+T+F + +GML  + +
VFTIFRVPTGMLALKPF
I-1
ttp985
aaa(lp986
S'>Au9.Cre11.g472200.t1'
p987
aS' '
aS' '
aF0
a(lp988
a(lp989
aa(lp990
S'>Au9.Cre05.g232550.t1'
p991
aVgi|359385308|emb|FR865725.1|
p992
aS'+'
aF0.012711864406779662
a(lp993
((I177
I182
t(I1120
I1137
t(VMDGRAP
V+DGRAP
VIDGRAP
I1
ttp994
aaa(lp995
S'>Au9.Cre64.g793000.t1'
p996
aVgi|406668626|gb|JX401409.1|
p997
aS'/'
aF0.11260504201680673
a(lp998
((I123
I157
t(I418
I525
t(VVVAVGQPEQLLPAL---LEGGGAAPLVLTAEEVTSEEA
VV  VGQ   L+P     L+ G    LVL   E+ S++A
VVRLVGQKRGLIPCRCHWLDQGVKTALVL--RELQSQDA
I1
ttp999
a((I212
I240
t(I737
I820
t(VFTPFKEKVEKRAAVRRDLPPPAKGELPLP
VF P K K EKR A +    PP    L  P
VFVP-KPKSEKRFARQHIYEPPPGFHLASP
I-3
ttp1000
aaa(lp1001
S'>Au9.Cre12.g540100.t1'
p1002
aVgi|406668626|gb|JX401409.1|
p1003
aS'-'
aF0.026666666666666668
a(lp1004
((I29
I34
t(I74
I91
t(VLQRVLL
VLQRVLL
VLQRVLL
I-3
ttp1005
aaa(lp1006
S'>Au9.Cre17.g696400.t1'
p1007
aS' '
aS' '
aF0
a(lp1008
a(lp1009
aa(lp1010
S'>Au9.Cre03.g209050.t1'
p1011
aS' '
aS' '
aF0
a(lp1012
a(lp1013
aa(lp1014
S'>Au9.Cre01.g017600.t1'
p1015
aVgi|359385308|emb|FR865725.1|
p1016
aS'+'
aF0.032163742690058478
a(lp1017
((I28
I35
t(I1989
I2012
t(VQQLSTTDI
V+QLSTTDI
VRQLSTTDI
I3
ttp1018
a((I711
I735
t(I1075
I1149
t(VLGSDGPTEVMWTVDLTDPRLWPGVE
VLGS G       +   D R  PGVE
VLGSGGSMVARLKLKGIDGRAPPGVE
I1
ttp1019
aaa(lp1020
S'>Au9.Cre12.g542450.t1'
p1021
aVgi|359385308|emb|FR865725.1|
p1022
aS'/'
aF0.0432937181663837
a(lp1023
((I100
I107
t(I51
I74
t(VCLRCETCN
VCL CET N
VCLYCETAN
I3
ttp1024
a((I541
I568
t(I191
I274
t(VVKGRAFDVRFAVNRSLFNKLQAVLSRTA
V+KGR    R AVN  +F K  A+  R +
VIKGRPSFARPAVNHDIFTKRMALCRRCS
I2
ttp1025
a((I1149
I1163
t(I2078
I2122
t(VGRGLLSDLEEQLRWL
V RGL  ++  ++RW 
VARGLERNMRSKIRWF
I-2
ttp1026
aaa(lp1027
S'>Au9.Cre08.g378600.t1'
p1028
aVgi|359385308|emb|FR865725.1|
p1029
aS'-'
aF0.11320754716981132
a(lp1030
((I113
I136
t(I697
I768
t(VFSTKSGFAALVHADVVTRLRQPDA
VF  K     L+++    RLR PD+
VFWRKPALNTLIYSK*PRRLRVPDS
I-3
ttp1031
aaa(lp1032
S'>Au9.Cre12.g559950.t1'
p1033
aVgi|406668626|gb|JX401409.1|
p1034
aS'+'
aF0.15789473684210525
a(lp1035
((I53
I79
t(I685
I765
t(VETVSITYIDKDGKEHTVAAPIGKNLLE
VE     +  KDG+        G+NL+E
VECEHTCWDPKDGELCLSRVKPGENLVE
I1
ttp1036
aaa(lp1037
S'>Au9.Cre13.g563200.t1'
p1038
aVgi|406668626|gb|JX401409.1|
p1039
aS'+'
aF0.058252427184466021
a(lp1040
((I112
I123
t(I403
I438
t(VNYPAWWRLIEDK
V +PAW RL+  K
VRWPAWVRLVGQK
I1
ttp1041
aaa(lp1042
S'>Au9.Cre10.g429150.t1'
p1043
aVgi|406668626|gb|JX401409.1|
p1044
aS'-'
aF0.15759312320916904
a(lp1045
((I190
I244
t(I70
I234
t(VLVGVYDTSISELMAGSLLRMGVQKALVVHSMGLDELTPMGPADVVEVTAGGPLKR
VL G+Y    +   +   LR  + + L V   G   L    P D       G   R
VLDGIYHQIWAAFPSNPTLRKHLVRQLSVSLRGSHPL*RPFPGDFSSARCRGYFYR
I-1
ttp1046
aaa(lp1047
S'>Au9.Cre11.g472250.t1'
p1048
aVgi|12055731|emb|AJ400488.1|
p1049
aS'-'
aF0.041176470588235294
a(lp1050
((I392
I405
t(I168
I230
t(VCFSLGL-------TACLRASP
VCF LGL       T+C R  P
VCFLLGL*QSPQATTSCSRQKP
I-3
ttp1051
aaa(lp1052
S'>Au9.Cre06.g268300.t1'
p1053
aS' '
aS' '
aF0
a(lp1054
a(lp1055
aa(lp1056
S'>Au9.Cre17.g726650.t1'
p1057
aS' '
aS' '
aF0
a(lp1058
a(lp1059
aa(lp1060
S'>Au9.Cre14.g629050.t1'
p1061
aVgi|359385308|emb|FR865725.1|
p1062
aS'+'
aF0.19591836734693877
a(lp1063
((I37
I50
t(I1805
I1846
t(VLSVNCSDVVQFSWL
VLSV C    Q +WL
VLSVPCLSCQQGNWL
I2
ttp1064
a((I41
I74
t(I258
I344
t(VCSDVVQFSWLPRHELEQSRGYGCGKPTIRNFGEG
VC+  V F +LP ++L         +PT+   G+G
VCAGAVPFKFLP-YQLSMVG*----RPTMVVTGDG
I3
ttp1065
aaa(lp1066
S'>Au9.Cre02.g136550.t1'
p1067
aVgi|406668626|gb|JX401409.1|
p1068
aS'-'
aF0.011834319526627219
a(lp1069
((I564
I577
t(I91
I132
t(VPLPMPMPARQSSAR
VPL  P P   SSAR
VPL*RPFPGDFSSAR
I-1
ttp1070
aaa(lp1071
S'>Au9.Cre04.g213450.t1'
p1072
aS' '
aS' '
aF0
a(lp1073
a(lp1074
aa(lp1075
S'>Au9.Cre17.g701900.t1'
p1076
aVgi|406668626|gb|JX401409.1|
p1077
aS'-'
aF0.10704225352112676
a(lp1078
((I14
I45
t(I455
I550
t(VTGRGSGTGSGSGTGSGSGTGSGSGTGSGSGTG
VTGR         T    G G  S  G  SG+G
VTGRLKAFHQHLETAVPEGQGQSSRLGQASGSG
I-3
ttp1079
a((I192
I197
t(I432
I449
t(VMDPRFC
V++PRFC
VINPRFC
I-2
ttp1080
aaa(lp1081
S'>Au9.Cre10.g425700.t1'
p1082
aVgi|406668626|gb|JX401409.1|
p1083
aS'-'
aF0.0098441345365053324
a(lp1084
((I998
I1009
t(I617
I652
t(VGGGWGHPTAPYP
VG G GHPT+ +P
VGAGTGHPTSQFP
I-3
ttp1085
aaa(lp1086
S'>Au9.Cre02.g115750.t1'
p1087
aS' '
aS' '
aF0
a(lp1088
a(lp1089
aa(lp1090
S'>Au9.Cre16.g690700.t1'
p1091
aVgi|359385308|emb|FR865725.1|
p1092
aS'-'
aF0.037542662116040959
a(lp1093
((I25
I35
t(I2304
I2336
t(VPPLRVVHRRRC
VP LRVV R RC
VP*LRVVGRSRC
I-1
ttp1094
aaa(lp1095
S'>Au9.Cre13.g564150.t1'
p1096
aVgi|359385308|emb|FR865725.1|
p1097
aS'/'
aF0.036649214659685861
a(lp1098
((I987
I1006
t(I485
I544
t(VASQASSAASSLASLDCSMST
VA    S  SSL  LDC+ S 
VAPDLPSNGSSLRDLDCTHSN
I-2
ttp1099
a((I1021
I1049
t(I653
I733
t(VVLAPAFWSAALVAFWLARAAWRLRRGRLE
V+L P+F S     FW + +  R RRG  E
VLLWPSFLSG--TGFWASLSGTRSRRGYFE
I2
ttp1100
aaa(lp1101
S'>Au9.Cre02.g102650.t1'
p1102
aVgi|359385308|emb|FR865725.1|
p1103
aS'-'
aF0.027870680044593088
a(lp1104
((I252
I276
t(I7
I72
t(VSSFHDPAAGLFSMHVGSGLPFDHSL
VS FH  ++    MH   GL F+ S+
VSQFHSISSLYLDMH---GLIFETSI
I-3
ttp1105
aaa(lp1106
S'>Au9.Cre02.g117550.t1'
p1107
aS' '
aS' '
aF0
a(lp1108
a(lp1109
aa(lp1110
S'>Au9.Cre01.g042750.t1'
p1111
aVgi|359385308|emb|FR865725.1|
p1112
aS'+'
aF0.071072319201995013
a(lp1113
((I305
I341
t(I815
I925
t(VIGATTSMFPYNKRMHDYLVATGRAPAASLADSFKEHL
V+  T  M   + R H Y +  G        +  ++HL
VVCRTGVMIKRDSRGHSYFIVRGEILGFMKDELLRKHL
I2
ttp1114
a((I671
I690
t(I313
I372
t(VRGLPWVVVGDENYGEGSSRE
VRGLPW     E+ G    RE
VRGLPWW*RVTED*GSIPERE
I1
ttp1115
aaa(lp1116
S'>Au9.Cre05.g237700.t1'
p1117
aVgi|406668626|gb|JX401409.1|
p1118
aS'/'
aF0.359375
a(lp1119
((I46
I54
t(I779
I805
t(VITCKKRFGL
V+TCK  FGL
VLTCKSLFGL
I2
ttp1120
a((I49
I62
t(I758
I799
t(VKKRFGLLPIQKPPP
V+KRF    I +PPP
VEKRFARQHIYEPPP
I-3
ttp1121
aaa(lp1122
S'>Au9.Cre03.g150050.t1'
p1123
aVgi|12055731|emb|AJ400488.1|
p1124
aS'-'
aF0.044293015332197615
a(lp1125
((I81
I96
t(I36
I83
t(VGKAEPPQSPSRDPSAL
VGK +PP  P+R   AL
VGKPDPPLRPTRS*PAL
I-3
ttp1126
a((I331
I340
t(I187
I216
t(VPMAHSTSYEY
VP+A STS+ +
VPLAKSTSHNF
I-2
ttp1127
aaa(lp1128
S'>Au9.Cre10.g426900.t1'
p1129
aVgi|359385308|emb|FR865725.1|
p1130
aS'-'
aF0.015957446808510637
a(lp1131
((I358
I366
t(I415
I441
t(VLPVSQLGNV
VLPVS LGN+
VLPVSGLGNL
I-3
ttp1132
aaa(lp1133
S'>Au9.Cre07.g316100.t1'
p1134
aVgi|359385308|emb|FR865725.1|
p1135
aS'-'
aF0.039795918367346937
a(lp1136
((I717
I730
t(I360
I401
t(VYLGSGSSSSGSSSG
V+LG GS  SGS SG
VFLGCGSRFSGSLSG
I-1
ttp1137
a((I1473
I1532
t(I1823
I2008
t(VSVTDSVLCVALRNTSNYYFRAW----LAPLGEGGAPPLLTAAAAAAAGCPVEVLQPGDTARLAA
VSV +S L + L   SN  FR W    LA + +    PL+      A  C   + +P   A LAA
VSVVESCLWLRLPVNSNQSFRVWF*QWLALVYKHAKAPLMQVIKLLAPACKYXLGEP--IALLAA
I-2
ttp1138
aaa(lp1139
S'>Au9.Cre05.g232650.t1'
p1140
aS' '
aS' '
aF0
a(lp1141
a(lp1142
aa(lp1143
S'>Au9.Cre09.g411600.t1'
p1144
aS' '
aS' '
aF0
a(lp1145
a(lp1146
aa(lp1147
S'>Au9.Cre03.g188600.t1'
p1148
aVgi|359385308|emb|FR865725.1|
p1149
aS'-'
aF0.026800670016750419
a(lp1150
((I269
I284
t(I258
I305
t(VHRRLLHHYLEKKRAGT
VHR+L+    E   AGT
VHRKLIGQKFEWNSAGT
I-1
ttp1151
aaa(lp1152
S'>Au9.Cre18.g750950.t1'
p1153
aVgi|359385308|emb|FR865725.1|
p1154
aS'+'
aF0.033653846153846152
a(lp1155
((I354
I367
t(I687
I728
t(VSGLFVRGLGTKIIT
VSGL   GLG  ++T
VSGLHCPGLGVDVVT
I3
ttp1156
aaa(lp1157
S'>Au9.Cre06.g298900.t1'
p1158
aVgi|406668626|gb|JX401409.1|
p1159
aS'+'
aF0.020408163265306121
a(lp1160
((I149
I153
t(I53
I67
t(VPAENC
VP+ENC
VPSENC
I2
ttp1161
aaa(lp1162
S'>Au9.Cre02.g145900.t1'
p1163
aVgi|406668626|gb|JX401409.1|
p1164
aS'-'
aF0.043307086614173228
a(lp1165
((I166
I176
t(I737
I769
t(VQPPPGYGAPQP
V+PPPG+    P
VEPPPGFHLASP
I-3
ttp1166
aaa(lp1167
S'>Au9.Cre17.g702000.t1'
p1168
aVgi|12055731|emb|AJ400488.1|
p1169
aS'-'
aF0.15270935960591134
a(lp1170
((I91
I121
t(I48
I134
t(VPCASWDAEKQRLTLTIVRESKQDPIKKPKKS
VPC S  A      + + +  K DP  +P +S
VPCLSL*ASAN--PIGVNQLGKPDPPLRPTRS
I-3
ttp1171
aaa(lp1172
S'>Au9.Cre07.g329500.t1'
p1173
aVgi|359385308|emb|FR865725.1|
p1174
aS'+'
aF0.019047619047619049
a(lp1175
((I309
I314
t(I320
I337
t(VYHGGSG
VYHGG+G
VYHGGNG
I2
ttp1176
a((I532
I543
t(I903
I938
t(VTNACEAWCSGVL
VTN CE+ C G  
VTNYCESICQGCF
I3
ttp1177
aaa(lp1178
S'>Au9.Cre07.g335850.t1'
p1179
aVgi|359385308|emb|FR865725.1|
p1180
aS'-'
aF0.23300970873786409
a(lp1181
((I84
I123
t(I2020
I2163
t(VGVRYCT-AACPQLVPE-------QRYRPSRTEQRLQRVSSSLRSGSAK
VGVR  T A    L+PE       QR+  SR          SLRS S +
VGVRV*TDAEADMLLPEGSSAICVQRFDGSRNSAIHTTYRISLRSSSLR
I-3
ttp1182
aaa(lp1183
S'>Au9.Cre02.g147300.t1'
p1184
aVgi|12055731|emb|AJ400488.1|
p1185
aS'-'
aF0.086614173228346455
a(lp1186
((I203
I224
t(I145
I210
t(VAKAVVHGFARLDAASKRRPVDA
VAK+  H F     A    PV+A
VAKSTSHNFV*SAEAGATYPVEA
I-2
ttp1187
aaa(lp1188
S'>Au9.Cre06.g272450.t1'
p1189
aVgi|12055731|emb|AJ400488.1|
p1190
aS'-'
aF0.013286093888396812
a(lp1191
((I789
I803
t(I54
I98
t(VGVNAAAQPHPPESPS
VGVN   +P PP  P+
VGVNQLGKPDPPLRPT
I-3
ttp1192
aaa(lp1193
S'>Au9.Cre16.g664000.t1'
p1194
aVgi|359385308|emb|FR865725.1|
p1195
aS'/'
aF0.10815939278937381
a(lp1196
((I1
I10
t(I765
I794
t(VMSCQAVIKYN
V+SC +++KY+
VLSCYSMLKYS
I-1
ttp1197
a((I53
I95
t(I159
I299
t(VVPGKGRGLV----ADRELPAAETLLVSEPVGTALAAPEGRELLPHHL
V+P  GR +     ADR L     +++S       A     + LP+ L
VIPTSGRDVYIR*KADRALLDPR*IMISSRSAWPCAGAVPFKFLPYQL
I3
ttp1198
aaa(lp1199
S'>Au9.Cre06.g296850.t1'
p1200
aVgi|406668626|gb|JX401409.1|
p1201
aS'/'
aF0.01218961625282167
a(lp1202
((I525
I533
t(I488
I514
t(VLPLWFGECA
VLPL FG C+
VLPLSFGNCS
I2
ttp1203
a((I1119
I1125
t(I644
I664
t(VACVVDRP
VAC +DRP
VACTIDRP
I2
ttp1204
a((I1889
I1899
t(I539
I571
t(VLLGPAAASGRL
VLLGP   +GRL
VLLGPCFKTGRL
I-3
ttp1205
aaa(lp1206
S'>Au9.Cre01.g049900.t1'
p1207
aVgi|406668626|gb|JX401409.1|
p1208
aS'-'
aF0.015730337078651686
a(lp1209
((I161
I167
t(I209
I229
t(VWDAPPVL
VWD PP L
VWDLPPNL
I-3
ttp1210
aaa(lp1211
S'>Au9.Cre01.g003600.t1'
p1212
aVgi|359385308|emb|FR865725.1|
p1213
aS'/'
aF0.19230769230769232
a(lp1214
((I39
I47
t(I2143
I2169
t(VCGLLPRPDV
V GL P P +
VVGLYPHPSL
I1
ttp1215
a((I41
I51
t(I377
I409
t(VLLPRPDVAPGS
VLLP  DV   S
VLLPSLDVVAVS
I-2
ttp1216
aaa(lp1217
S'>Au9.Cre13.g576250.t1'
p1218
aVgi|406668626|gb|JX401409.1|
p1219
aS'/'
aF0.079493087557603689
a(lp1220
((I45
I59
t(I625
I669
t(VDATDHLKLKHRPDDR
VD  D L L HRP  R
VDWWDGLCLHHRPTMR
I1
ttp1221
a((I156
I195
t(I170
I280
t(VPTRTLQPLLLIPQLFSWLDLPQDYAFKQVQAKTVSASKAP
VP+R L  + L P      DLP +        K   +SKAP
VPSRYLFAIGLSPVFSLRWDLPPNLG---CIPKQPDSSKAP
I-3
ttp1222
a((I384
I397
t(I438
I479
t(VPWRGLYIRRGYDPR
VPW   + R G +PR
VPWSSQWQRHGINPR
I-2
ttp1223
aaa(lp1224
S'>Au9.Cre03.g171150.t1'
p1225
aVgi|359385308|emb|FR865725.1|
p1226
aS'-'
aF0.020804438280166437
a(lp1227
((I827
I856
t(I613
I702
t(VEAEAQAEVEEVAALNGQLHHSHTPSQTPVS
V++EAQ  V +    +   HH  T    P S
VDSEAQKPVPDRKEGHSSTHHRRTARTHPKS
I-3
ttp1228
aaa(lp1229
S'>Au9.Cre01.g037900.t1'
p1230
aVgi|406668626|gb|JX401409.1|
p1231
aS'-'
aF0.26442307692307693
a(lp1232
((I43
I70
t(I686
I751
t(VHLAICCSARDTLDAVVHALLQTRAFAVT
VHLA  CS       +VH L     +A T
VHLASPCS------GIVHHLSGPNRYART
I-3
ttp1233
a((I172
I196
t(I577
I657
t(VDMVEAGAVG--AFRALEGFAASPVLEM
V MV+A A+   +F  L GF+   +  M
VSMVQAQAIPPVSFLTLHGFSTHQLAYM
I-1
ttp1234
aaa(lp1235
S'>Au9.Cre01.g014650.t1'
p1236
aVgi|406668626|gb|JX401409.1|
p1237
aS'-'
aF0.33516483516483514
a(lp1238
((I41
I78
t(I422
I535
t(VAFHTSTASDEVIGEGSLFSLNETARPAWIQTISYKPRA
VAFH    +    G+G    L + +    + T ++ P A
VAFHQHLETAVPEGQGQSSRLGQASGSGMVSTHAFVPLA
I-3
ttp1239
a((I54
I70
t(I445
I495
t(VEGSLFSLNETARPAWIQ
V+GSL +L +    AW Q
VKGSLHALVKPVAAAWYQ
I-1
ttp1240
a((I111
I166
t(I582
I782
t(VNAGVVDDIRTSYGTFLRRHQDPVIAA---------IEHRLA-LW-SHLPASHQEDMQVLRYGPTNKY
V+A +    R S G  L RH  P   +         ++ R+   W  H P+     ++ + + PTN +
VSAHLRASTRFSPGFTLLRHSSPSFGSQQVCSHSNLLQKRMVGRWCRHRPSHQSVSLRFMGFPPTNSH
I-2
ttp1241
aaa(lp1242
S'>Au9.Cre02.g092900.t1'
p1243
aVgi|359385308|emb|FR865725.1|
p1244
aS'+'
aF0.046728971962616821
a(lp1245
((I99
I110
t(I2
I37
t(VTHLLGGEVKPAV
V+H+L  ++KP +
VSHMLVSKIKPCM
I2
ttp1246
a((I105
I117
t(I1062
I1100
t(VEVKPAVHGGEYGR
VE+K     GEYGR
VEIKVFGFRGEYGR
I3
ttp1247
aaa(lp1248
S'>Au9.Cre03.g175850.t1'
p1249
aVgi|12055731|emb|AJ400488.1|
p1250
aS'-'
aF0.015891032917139614
a(lp1251
((I110
I123
t(I58
I99
t(VQPKPARKARATPAA
V+ +P  KAR+TP A
VRSEPIGKARSTPEA
I-2
ttp1252
aaa(lp1253
S'>Au9.Cre01.g048700.t1'
p1254
aS' '
aS' '
aF0
a(lp1255
a(lp1256
aa(lp1257
S'>Au9.Cre06.g306350.t1'
p1258
aVgi|359385308|emb|FR865725.1|
p1259
aS'-'
aF0.19786096256684493
a(lp1260
((I69
I103
t(I384
I488
t(VETREISCPDNQYILDAAEAQGLDL--PATCRGGICGA
V+  +I CP   +I+  +  Q   +  PA   G  CG+
VQLPDIKCPVLLFIVTTSPYQDWVICAPAAFLG--CGS
I-1
ttp1261
aaa(lp1262
S'>Au9.Cre12.g492150.t1'
p1263
aS' '
aS' '
aF0
a(lp1264
a(lp1265
aa(lp1266
S'>Au9.Cre18.g751050.t1'
p1267
aVgi|359385308|emb|FR865725.1|
p1268
aS'+'
aF0.10684931506849316
a(lp1269
((I179
I210
t(I1937
I2023
t(VAKAGREVLINREVVAWEAAAAAERDNGQTGRR
V+K   E LI    + W++      +NG  G R
VSKPNSEALI---AINWQS*PKTTLNNGYLGSR
I2
ttp1270
a((I270
I276
t(I2332
I2352
t(VYGLWHLL
VYGLW LL
VYGLWTLL
I1
ttp1271
aaa(lp1272
S'>Au9.Cre08.g361850.t1'
p1273
aS' '
aS' '
aF0
a(lp1274
a(lp1275
aa(lp1276
S'>Au9.Cre17.g742250.t1'
p1277
aVgi|359385308|emb|FR865725.1|
p1278
aS'/'
aF0.080684596577017112
a(lp1279
((I16
I32
t(I2296
I2346
t(VAPQALNHLGFTEPVIDL
p1280
V+PQA+      +PV+ +
p1281
VSPQAITSCSRQKPVLPI
p1282
I-3
ttp1283
a((I370
I385
t(I2228
I2275
t(VWFDDIRAAEAAALQAG
VWF  I  AEA  L+ G
VWFTPIGLAEA*RLKQG
I2
ttp1284
aaa.